target datalayout = "e-m:e-p270:32:32-p271:32:32-p272:64:64-i64:64-i128:128-f80:128-n8:16:32:64-S128"
target triple = "x86_64-pc-linux-gnu"

%struct.rb_data_type_struct = type { ptr, %struct.anon, ptr, ptr, i64 }
%struct.anon = type { ptr, ptr, ptr, ptr, [1 x ptr] }
%struct.JSON_Generator_StateStruct = type { i64, i64, i64, i64, i64, i64, i64, i64, i64, i8, i8, i8, i8 }
%struct.generate_json_data = type { ptr, i64, ptr, i64, ptr }
%struct.RTypedData = type { %struct.RBasic, ptr, i64, ptr }
%struct.RBasic = type { i64, i64 }
%struct.rbimpl_size_mul_overflow_tag = type { i8, i64 }

@cState = internal global i64 0, align 8
@JSON_Generator_State_type = internal constant %struct.rb_data_type_struct { ptr @.str.74, %struct.anon { ptr @State_mark, ptr @State_free, ptr @State_memsize, ptr @State_compact, [1 x ptr] zeroinitializer }, ptr null, ptr null, i64 289 }, align 8
@.str.80 = private unnamed_addr constant [43 x i8] c"../../../../ext/json/generator/generator.c\00", align 1

; Function Attrs: inlinehint nounwind sspstrong willreturn memory(none) uwtable
define internal zeroext i1 @RB_IMMEDIATE_P(i64 noundef %0) #6 {
  %2 = alloca i64, align 8
  store i64 %0, ptr %2, align 8, !tbaa !6
  %3 = load i64, ptr %2, align 8, !tbaa !6
  %4 = and i64 %3, 7
  %5 = icmp ne i64 %4, 0
  ret i1 %5
}

; Function Attrs: inlinehint nounwind sspstrong uwtable
define internal zeroext i1 @RTYPEDDATA_EMBEDDED_P(i64 noundef %0) #4 {
  %2 = alloca i64, align 8
  store i64 %0, ptr %2, align 8, !tbaa !6
  %3 = load i64, ptr %2, align 8, !tbaa !6
  %4 = inttoptr i64 %3 to ptr
  %5 = getelementptr inbounds nuw %struct.RTypedData, ptr %4, i32 0, i32 2
  %6 = load i64, ptr %5, align 8, !tbaa !49
  %7 = and i64 %6, 2
  %8 = icmp ne i64 %7, 0
  ret i1 %8
}

; Function Attrs: inlinehint nounwind sspstrong willreturn memory(none) uwtable
define internal zeroext i1 @RB_SPECIAL_CONST_P(i64 noundef %0) #6 {
  %2 = alloca i64, align 8
  store i64 %0, ptr %2, align 8, !tbaa !6
  %3 = load i64, ptr %2, align 8, !tbaa !6
  %4 = icmp eq i64 %3, 0
  br i1 %4, label %8, label %5

5:                                                ; preds = %1
  %6 = load i64, ptr %2, align 8, !tbaa !6
  %7 = call zeroext i1 @RB_IMMEDIATE_P(i64 noundef %6) #28
  br label %8

8:                                                ; preds = %5, %1
  %9 = phi i1 [ true, %1 ], [ %7, %5 ]
  ret i1 %9
}

; Function Attrs: alwaysinline nounwind
define internal ptr @memcpy.inline(ptr noalias nonnull %0, ptr noalias nonnull %1, i64 %2) #15 {
  %4 = alloca ptr, align 8
  %5 = alloca ptr, align 8
  %6 = alloca i64, align 8
  store ptr %0, ptr %4, align 8, !tbaa !48
  store ptr %1, ptr %5, align 8, !tbaa !48
  store i64 %2, ptr %6, align 8, !tbaa !6
  %7 = load ptr, ptr %4, align 8, !tbaa !48
  %8 = load ptr, ptr %5, align 8, !tbaa !48
  %9 = load i64, ptr %6, align 8, !tbaa !6
  %10 = load ptr, ptr %4, align 8, !tbaa !48
  %11 = call i64 @llvm.objectsize.i64.p0(ptr %10, i1 false, i1 true, i1 false)
  %12 = call ptr @__memcpy_chk(ptr noundef %7, ptr noundef %8, i64 noundef %9, i64 noundef %11) #27
  ret ptr %12
}

; Function Attrs: inlinehint nounwind sspstrong willreturn memory(none) uwtable
define internal { i8, i64 } @rbimpl_size_mul_overflow(i64 noundef %0, i64 noundef %1) #6 {
  %3 = alloca %struct.rbimpl_size_mul_overflow_tag, align 8
  %4 = alloca i64, align 8
  %5 = alloca i64, align 8
  store i64 %0, ptr %4, align 8, !tbaa !6
  store i64 %1, ptr %5, align 8, !tbaa !6
  call void @llvm.memset.p0.i64(ptr align 8 %3, i8 0, i64 16, i1 false)
  %6 = load i64, ptr %4, align 8, !tbaa !6
  %7 = load i64, ptr %5, align 8, !tbaa !6
  %8 = getelementptr inbounds nuw %struct.rbimpl_size_mul_overflow_tag, ptr %3, i32 0, i32 1
  %9 = call { i64, i1 } @llvm.umul.with.overflow.i64(i64 %6, i64 %7)
  %10 = extractvalue { i64, i1 } %9, 1
  %11 = extractvalue { i64, i1 } %9, 0
  store i64 %11, ptr %8, align 8
  %12 = getelementptr inbounds nuw %struct.rbimpl_size_mul_overflow_tag, ptr %3, i32 0, i32 0
  %13 = zext i1 %10 to i8
  store i8 %13, ptr %12, align 8, !tbaa !53
  %14 = load { i8, i64 }, ptr %3, align 8
  ret { i8, i64 } %14
}

; Function Attrs: nounwind sspstrong uwtable
define internal void @state_init(ptr noundef %0) #0 {
  %2 = alloca ptr, align 8
  store ptr %0, ptr %2, align 8, !tbaa !12
  %3 = load ptr, ptr %2, align 8, !tbaa !12
  %4 = getelementptr inbounds nuw %struct.JSON_Generator_StateStruct, ptr %3, i32 0, i32 6
  store i64 100, ptr %4, align 8, !tbaa !25
  %5 = load ptr, ptr %2, align 8, !tbaa !12
  %6 = getelementptr inbounds nuw %struct.JSON_Generator_StateStruct, ptr %5, i32 0, i32 8
  store i64 1024, ptr %6, align 8, !tbaa !33
  ret void
}

; Function Attrs: inlinehint nounwind sspstrong uwtable
define internal ptr @RTYPEDDATA_GET_DATA(i64 noundef %0) #4 {
  %2 = alloca i64, align 8
  %3 = alloca i64, align 8
  store i64 %0, ptr %2, align 8, !tbaa !6
  call void @llvm.lifetime.start.p0(i64 8, ptr %3) #27
  store i64 32, ptr %3, align 8, !tbaa !6
  %4 = load i64, ptr %2, align 8, !tbaa !6
  %5 = call zeroext i1 @RTYPEDDATA_EMBEDDED_P(i64 noundef %4)
  br i1 %5, label %6, label %10

6:                                                ; preds = %1
  %7 = load i64, ptr %2, align 8, !tbaa !6
  %8 = inttoptr i64 %7 to ptr
  %9 = getelementptr inbounds nuw i8, ptr %8, i64 32
  br label %15

10:                                               ; preds = %1
  %11 = load i64, ptr %2, align 8, !tbaa !6
  %12 = inttoptr i64 %11 to ptr
  %13 = getelementptr inbounds nuw %struct.RTypedData, ptr %12, i32 0, i32 3
  %14 = load ptr, ptr %13, align 8, !tbaa !44
  br label %15

15:                                               ; preds = %10, %6
  %16 = phi ptr [ %9, %6 ], [ %14, %10 ]
  call void @llvm.lifetime.end.p0(i64 8, ptr %3) #27
  ret ptr %16
}

; Function Attrs: inlinehint nounwind sspstrong uwtable
define internal i64 @rb_obj_written(i64 noundef %0, i64 noundef %1, i64 noundef %2, ptr noundef %3, i32 noundef %4) #4 {
  %6 = alloca i64, align 8
  %7 = alloca i64, align 8
  %8 = alloca i64, align 8
  %9 = alloca ptr, align 8
  %10 = alloca i32, align 4
  store i64 %0, ptr %6, align 8, !tbaa !6
  store i64 %1, ptr %7, align 8, !tbaa !6
  store i64 %2, ptr %8, align 8, !tbaa !6
  store ptr %3, ptr %9, align 8, !tbaa !56
  store i32 %4, ptr %10, align 4, !tbaa !10
  %11 = load i64, ptr %8, align 8, !tbaa !6
  %12 = call zeroext i1 @RB_SPECIAL_CONST_P(i64 noundef %11) #28
  br i1 %12, label %16, label %13

13:                                               ; preds = %5
  %14 = load i64, ptr %6, align 8, !tbaa !6
  %15 = load i64, ptr %8, align 8, !tbaa !6
  call void @rb_gc_writebarrier(i64 noundef %14, i64 noundef %15)
  br label %16

16:                                               ; preds = %13, %5
  %17 = load i64, ptr %6, align 8, !tbaa !6
  ret i64 %17
}

; Function Attrs: inlinehint nounwind sspstrong memory(argmem: readwrite, inaccessiblemem: readwrite) uwtable
define internal nonnull ptr @ruby_nonempty_memcpy(ptr noundef nonnull %0, ptr noundef %1, i64 noundef %2) #14 {
  %4 = alloca ptr, align 8
  %5 = alloca ptr, align 8
  %6 = alloca ptr, align 8
  %7 = alloca i64, align 8
  store ptr %0, ptr %5, align 8, !tbaa !48
  store ptr %1, ptr %6, align 8, !tbaa !48
  store i64 %2, ptr %7, align 8, !tbaa !6
  %8 = load i64, ptr %7, align 8, !tbaa !6
  %9 = icmp ne i64 %8, 0
  br i1 %9, label %10, label %15

10:                                               ; preds = %3
  %11 = load ptr, ptr %5, align 8, !tbaa !48
  %12 = load ptr, ptr %6, align 8, !tbaa !48
  %13 = load i64, ptr %7, align 8, !tbaa !6
  %14 = call ptr @memcpy.inline(ptr noundef %11, ptr noundef %12, i64 noundef %13) #27
  store ptr %14, ptr %4, align 8
  br label %17

15:                                               ; preds = %3
  %16 = load ptr, ptr %5, align 8, !tbaa !48
  store ptr %16, ptr %4, align 8
  br label %17

17:                                               ; preds = %15, %10
  %18 = load ptr, ptr %4, align 8
  ret ptr %18
}

; Function Attrs: inlinehint nounwind sspstrong uwtable
define internal i64 @rbimpl_size_mul_or_raise(i64 noundef %0, i64 noundef %1) #4 {
  %3 = alloca i64, align 8
  %4 = alloca i64, align 8
  %5 = alloca %struct.rbimpl_size_mul_overflow_tag, align 8
  store i64 %0, ptr %3, align 8, !tbaa !6
  store i64 %1, ptr %4, align 8, !tbaa !6
  call void @llvm.lifetime.start.p0(i64 16, ptr %5) #27
  %6 = load i64, ptr %3, align 8, !tbaa !6
  %7 = load i64, ptr %4, align 8, !tbaa !6
  %8 = call { i8, i64 } @rbimpl_size_mul_overflow(i64 noundef %6, i64 noundef %7) #28
  %9 = getelementptr inbounds nuw { i8, i64 }, ptr %5, i32 0, i32 0
  %10 = extractvalue { i8, i64 } %8, 0
  store i8 %10, ptr %9, align 8
  %11 = getelementptr inbounds nuw { i8, i64 }, ptr %5, i32 0, i32 1
  %12 = extractvalue { i8, i64 } %8, 1
  store i64 %12, ptr %11, align 8
  %13 = getelementptr inbounds nuw %struct.rbimpl_size_mul_overflow_tag, ptr %5, i32 0, i32 0
  %14 = load i8, ptr %13, align 8, !tbaa !53, !range !27, !noundef !28
  %15 = trunc i8 %14 to i1
  %16 = xor i1 %15, true
  %17 = xor i1 %16, true
  %18 = xor i1 %17, true
  %19 = zext i1 %18 to i32
  %20 = sext i32 %19 to i64
  %21 = call i64 @llvm.expect.i64(i64 %20, i64 1)
  %22 = icmp ne i64 %21, 0
  br i1 %22, label %23, label %26

23:                                               ; preds = %2
  %24 = getelementptr inbounds nuw %struct.rbimpl_size_mul_overflow_tag, ptr %5, i32 0, i32 1
  %25 = load i64, ptr %24, align 8, !tbaa !55
  call void @llvm.lifetime.end.p0(i64 16, ptr %5) #27
  ret i64 %25

26:                                               ; preds = %2
  %27 = load i64, ptr %3, align 8, !tbaa !6
  %28 = load i64, ptr %4, align 8, !tbaa !6
  call void @ruby_malloc_size_overflow(i64 noundef %27, i64 noundef %28) #30
  unreachable
}

; Function Attrs: nounwind sspstrong uwtable
define internal i64 @cState_s_allocate(i64 noundef %0) #0 {
  %2 = alloca i64, align 8
  %3 = alloca ptr, align 8
  %4 = alloca i64, align 8
  %5 = alloca i64, align 8
  %6 = alloca i64, align 8
  store i64 %0, ptr %2, align 8, !tbaa !6
  call void @llvm.lifetime.start.p0(i64 8, ptr %3) #27
  call void @llvm.lifetime.start.p0(i64 8, ptr %4) #27
  call void @llvm.lifetime.start.p0(i64 8, ptr %5) #27
  %7 = load i64, ptr %2, align 8, !tbaa !6
  %8 = call i64 @rb_data_typed_object_zalloc(i64 noundef %7, i64 noundef 80, ptr noundef @JSON_Generator_State_type)
  store i64 %8, ptr %5, align 8, !tbaa !6
  %9 = load i64, ptr %5, align 8, !tbaa !6
  %10 = call ptr @RTYPEDDATA_GET_DATA(i64 noundef %9)
  store ptr %10, ptr %3, align 8, !tbaa !12
  %11 = load i64, ptr %5, align 8, !tbaa !6
  store i64 %11, ptr %6, align 8, !tbaa !6
  call void @llvm.lifetime.end.p0(i64 8, ptr %5) #27
  %12 = load i64, ptr %6, align 8, !tbaa !6
  store i64 %12, ptr %4, align 8, !tbaa !6
  %13 = load ptr, ptr %3, align 8, !tbaa !12
  call void @state_init(ptr noundef %13)
  %14 = load i64, ptr %4, align 8, !tbaa !6
  call void @llvm.lifetime.end.p0(i64 8, ptr %4) #27
  call void @llvm.lifetime.end.p0(i64 8, ptr %3) #27
  ret i64 %14
}

; Function Attrs: nounwind sspstrong uwtable
define internal void @vstate_spill(ptr noundef %0) #0 {
  %2 = alloca ptr, align 8
  %3 = alloca i64, align 8
  %4 = alloca ptr, align 8
  store ptr %0, ptr %2, align 8, !tbaa !58
  call void @llvm.lifetime.start.p0(i64 8, ptr %3) #27
  %5 = load i64, ptr @cState, align 8, !tbaa !6
  %6 = call i64 @cState_s_allocate(i64 noundef %5)
  store i64 %6, ptr %3, align 8, !tbaa !6
  call void @llvm.lifetime.start.p0(i64 8, ptr %4) #27
  %7 = load i64, ptr %3, align 8, !tbaa !6
  %8 = call ptr @rb_check_typeddata(i64 noundef %7, ptr noundef @JSON_Generator_State_type)
  store ptr %8, ptr %4, align 8, !tbaa !12
  %9 = load ptr, ptr %4, align 8, !tbaa !12
  %10 = load ptr, ptr %2, align 8, !tbaa !58
  %11 = getelementptr inbounds nuw %struct.generate_json_data, ptr %10, i32 0, i32 2
  %12 = load ptr, ptr %11, align 8, !tbaa !41
  %13 = call i64 @rbimpl_size_mul_or_raise(i64 noundef 80, i64 noundef 1)
  %14 = call nonnull ptr @ruby_nonempty_memcpy(ptr noundef %9, ptr noundef %12, i64 noundef %13) #31
  %15 = load ptr, ptr %4, align 8, !tbaa !12
  %16 = load ptr, ptr %2, align 8, !tbaa !58
  %17 = getelementptr inbounds nuw %struct.generate_json_data, ptr %16, i32 0, i32 2
  store ptr %15, ptr %17, align 8, !tbaa !41
  %18 = load i64, ptr %3, align 8, !tbaa !6
  %19 = load ptr, ptr %2, align 8, !tbaa !58
  %20 = getelementptr inbounds nuw %struct.generate_json_data, ptr %19, i32 0, i32 1
  store i64 %18, ptr %20, align 8, !tbaa !40
  %21 = load i64, ptr %3, align 8, !tbaa !6
  %22 = load ptr, ptr %4, align 8, !tbaa !12
  %23 = getelementptr inbounds nuw %struct.JSON_Generator_StateStruct, ptr %22, i32 0, i32 0
  %24 = load i64, ptr %23, align 8, !tbaa !17
  %25 = call i64 @rb_obj_written(i64 noundef %21, i64 noundef 36, i64 noundef %24, ptr noundef @.str.80, i32 noundef 770)
  %26 = load i64, ptr %3, align 8, !tbaa !6
  %27 = load ptr, ptr %4, align 8, !tbaa !12
  %28 = getelementptr inbounds nuw %struct.JSON_Generator_StateStruct, ptr %27, i32 0, i32 1
  %29 = load i64, ptr %28, align 8, !tbaa !20
  %30 = call i64 @rb_obj_written(i64 noundef %26, i64 noundef 36, i64 noundef %29, ptr noundef @.str.80, i32 noundef 771)
  %31 = load i64, ptr %3, align 8, !tbaa !6
  %32 = load ptr, ptr %4, align 8, !tbaa !12
  %33 = getelementptr inbounds nuw %struct.JSON_Generator_StateStruct, ptr %32, i32 0, i32 2
  %34 = load i64, ptr %33, align 8, !tbaa !21
  %35 = call i64 @rb_obj_written(i64 noundef %31, i64 noundef 36, i64 noundef %34, ptr noundef @.str.80, i32 noundef 772)
  %36 = load i64, ptr %3, align 8, !tbaa !6
  %37 = load ptr, ptr %4, align 8, !tbaa !12
  %38 = getelementptr inbounds nuw %struct.JSON_Generator_StateStruct, ptr %37, i32 0, i32 3
  %39 = load i64, ptr %38, align 8, !tbaa !22
  %40 = call i64 @rb_obj_written(i64 noundef %36, i64 noundef 36, i64 noundef %39, ptr noundef @.str.80, i32 noundef 773)
  %41 = load i64, ptr %3, align 8, !tbaa !6
  %42 = load ptr, ptr %4, align 8, !tbaa !12
  %43 = getelementptr inbounds nuw %struct.JSON_Generator_StateStruct, ptr %42, i32 0, i32 4
  %44 = load i64, ptr %43, align 8, !tbaa !23
  %45 = call i64 @rb_obj_written(i64 noundef %41, i64 noundef 36, i64 noundef %44, ptr noundef @.str.80, i32 noundef 774)
  %46 = load i64, ptr %3, align 8, !tbaa !6
  %47 = load ptr, ptr %4, align 8, !tbaa !12
  %48 = getelementptr inbounds nuw %struct.JSON_Generator_StateStruct, ptr %47, i32 0, i32 5
  %49 = load i64, ptr %48, align 8, !tbaa !24
  %50 = call i64 @rb_obj_written(i64 noundef %46, i64 noundef 36, i64 noundef %49, ptr noundef @.str.80, i32 noundef 775)
  call void @llvm.lifetime.end.p0(i64 8, ptr %4) #27
  call void @llvm.lifetime.end.p0(i64 8, ptr %3) #27
  ret void
}