; Function Attrs: nounwind sspstrong uwtable
define internal fastcc void @vstate_spill(ptr noundef captures(none) initializes((8, 16)) %0) unnamed_addr #0 {
  %2 = load i64, ptr @cState, align 8, !tbaa !6
  %3 = tail call i64 @rb_data_typed_object_zalloc(i64 noundef %2, i64 noundef 80, ptr noundef nonnull @JSON_Generator_State_type) #22
  %4 = inttoptr i64 %3 to ptr
  %5 = getelementptr inbounds nuw i8, ptr %4, i64 24
  %6 = load i64, ptr %5, align 8, !tbaa !12
  %7 = and i64 %6, 2
  %.not.i.i = icmp eq i64 %7, 0
  %8 = getelementptr inbounds nuw i8, ptr %4, i64 32
  br i1 %.not.i.i, label %9, label %cState_s_allocate.exit

9:                                                ; preds = %1
  %10 = load ptr, ptr %8, align 8, !tbaa !17
  br label %cState_s_allocate.exit

cState_s_allocate.exit:                           ; preds = %1, %9
  %11 = phi ptr [ %10, %9 ], [ %8, %1 ]
  %12 = getelementptr inbounds nuw i8, ptr %11, i64 48
  store i64 100, ptr %12, align 8, !tbaa !18
  %13 = getelementptr inbounds nuw i8, ptr %11, i64 64
  store i64 1024, ptr %13, align 8, !tbaa !21
  %14 = tail call ptr @rb_check_typeddata(i64 noundef %3, ptr noundef nonnull @JSON_Generator_State_type) #22
  %15 = getelementptr inbounds nuw i8, ptr %0, i64 16
  %16 = load ptr, ptr %15, align 8, !tbaa !53
  tail call void @llvm.memcpy.p0.p0.i64(ptr noundef nonnull align 1 dereferenceable(80) %14, ptr noundef nonnull readonly align 1 dereferenceable(80) %16, i64 noundef range(i64 1, 0) 80, i1 noundef false) #22
  store ptr %14, ptr %15, align 8, !tbaa !53
  %17 = getelementptr inbounds nuw i8, ptr %0, i64 8
  store i64 %3, ptr %17, align 8, !tbaa !52
  %18 = load i64, ptr %14, align 8, !tbaa !25
  %19 = icmp eq i64 %18, 0
  %20 = and i64 %18, 7
  %21 = icmp ne i64 %20, 0
  %22 = or i1 %19, %21
  br i1 %22, label %rb_obj_written.exit, label %23

23:                                               ; preds = %cState_s_allocate.exit
  tail call void @rb_gc_writebarrier(i64 noundef %3, i64 noundef %18) #22
  br label %rb_obj_written.exit

rb_obj_written.exit:                              ; preds = %cState_s_allocate.exit, %23
  %24 = getelementptr inbounds nuw i8, ptr %14, i64 8
  %25 = load i64, ptr %24, align 8, !tbaa !26
  %26 = icmp eq i64 %25, 0
  %27 = and i64 %25, 7
  %28 = icmp ne i64 %27, 0
  %29 = or i1 %26, %28
  br i1 %29, label %rb_obj_written.exit18, label %30

30:                                               ; preds = %rb_obj_written.exit
  tail call void @rb_gc_writebarrier(i64 noundef %3, i64 noundef %25) #22
  br label %rb_obj_written.exit18

rb_obj_written.exit18:                            ; preds = %rb_obj_written.exit, %30
  %31 = getelementptr inbounds nuw i8, ptr %14, i64 16
  %32 = load i64, ptr %31, align 8, !tbaa !27
  %33 = icmp eq i64 %32, 0
  %34 = and i64 %32, 7
  %35 = icmp ne i64 %34, 0
  %36 = or i1 %33, %35
  br i1 %36, label %rb_obj_written.exit19, label %37

37:                                               ; preds = %rb_obj_written.exit18
  tail call void @rb_gc_writebarrier(i64 noundef %3, i64 noundef %32) #22
  br label %rb_obj_written.exit19

rb_obj_written.exit19:                            ; preds = %rb_obj_written.exit18, %37
  %38 = getelementptr inbounds nuw i8, ptr %14, i64 24
  %39 = load i64, ptr %38, align 8, !tbaa !28
  %40 = icmp eq i64 %39, 0
  %41 = and i64 %39, 7
  %42 = icmp ne i64 %41, 0
  %43 = or i1 %40, %42
  br i1 %43, label %rb_obj_written.exit20, label %44

44:                                               ; preds = %rb_obj_written.exit19
  tail call void @rb_gc_writebarrier(i64 noundef %3, i64 noundef %39) #22
  br label %rb_obj_written.exit20

rb_obj_written.exit20:                            ; preds = %rb_obj_written.exit19, %44
  %45 = getelementptr inbounds nuw i8, ptr %14, i64 32
  %46 = load i64, ptr %45, align 8, !tbaa !29
  %47 = icmp eq i64 %46, 0
  %48 = and i64 %46, 7
  %49 = icmp ne i64 %48, 0
  %50 = or i1 %47, %49
  br i1 %50, label %rb_obj_written.exit21, label %51

51:                                               ; preds = %rb_obj_written.exit20
  tail call void @rb_gc_writebarrier(i64 noundef %3, i64 noundef %46) #22
  br label %rb_obj_written.exit21

rb_obj_written.exit21:                            ; preds = %rb_obj_written.exit20, %51
  %52 = getelementptr inbounds nuw i8, ptr %14, i64 40
  %53 = load i64, ptr %52, align 8, !tbaa !30
  %54 = icmp eq i64 %53, 0
  %55 = and i64 %53, 7
  %56 = icmp ne i64 %55, 0
  %57 = or i1 %54, %56
  br i1 %57, label %rb_obj_written.exit22, label %58

58:                                               ; preds = %rb_obj_written.exit21
  tail call void @rb_gc_writebarrier(i64 noundef %3, i64 noundef %53) #22
  br label %rb_obj_written.exit22

rb_obj_written.exit22:                            ; preds = %rb_obj_written.exit21, %58
  ret void
}